target datalayout = "e-m:e-p270:32:32-p271:32:32-p272:64:64-i64:64-i128:128-f80:128-n8:16:32:64-S128"
target triple = "x86_64-pc-linux-gnu"

%struct.DdNode = type { i32, i32, ptr, %union.anon, i64 }
%union.anon = type { %struct.DdChildren }
%struct.DdChildren = type { ptr, ptr }
%struct.DdManager = type { %struct.DdNode, ptr, ptr, ptr, ptr, ptr, ptr, ptr, i32, i32, double, double, double, i32, i32, i32, i32, i32, i32, ptr, ptr, %struct.DdSubtable, i32, i32, i32, i32, i32, i32, i32, double, i32, i32, i32, ptr, i64, double, i32, ptr, ptr, ptr, ptr, ptr, ptr, ptr, i32, ptr, ptr, ptr, ptr, ptr, ptr, i32, i32, i32, double, i32, i32, i32, i32, double, double, i32, i32, i32, i32, i32, i32, i32, i32, i32, ptr, ptr, i32, i32, i32, i32, i32, i32, ptr, ptr, ptr, ptr, ptr, ptr, ptr, ptr, i32, i64, i64, i64, i32, i64, i64, double, double, double, double, double, double, i32, ptr, ptr, i64 }
%struct.DdSubtable = type { ptr, i32, i32, i32, i32, i32, i32, i32, i32, i32, i32, i32 }

; Function Attrs: nounwind uwtable
define ptr @cuddAddBddDoPattern(ptr noundef %0, ptr noundef %1) #0 {
  %3 = alloca ptr, align 8
  %4 = alloca ptr, align 8
  %5 = alloca ptr, align 8
  %6 = alloca ptr, align 8
  %7 = alloca ptr, align 8
  %8 = alloca ptr, align 8
  %9 = alloca ptr, align 8
  %10 = alloca ptr, align 8
  %11 = alloca i32, align 4
  %12 = alloca i32, align 4
  store ptr %0, ptr %4, align 8, !tbaa !3
  store ptr %1, ptr %5, align 8, !tbaa !8
  call void @llvm.lifetime.start.p0(i64 8, ptr %6) #5
  call void @llvm.lifetime.start.p0(i64 8, ptr %7) #5
  call void @llvm.lifetime.start.p0(i64 8, ptr %8) #5
  call void @llvm.lifetime.start.p0(i64 8, ptr %9) #5
  call void @llvm.lifetime.start.p0(i64 8, ptr %10) #5
  call void @llvm.lifetime.start.p0(i64 4, ptr %11) #5
  %13 = load ptr, ptr %5, align 8, !tbaa !8
  %14 = getelementptr inbounds nuw %struct.DdNode, ptr %13, i32 0, i32 0
  %15 = load i32, ptr %14, align 8, !tbaa !31
  %16 = icmp eq i32 %15, 2147483647
  br i1 %16, label %17, label %31

17:                                               ; preds = %2
  %18 = load ptr, ptr %4, align 8, !tbaa !3
  %19 = getelementptr inbounds nuw %struct.DdManager, ptr %18, i32 0, i32 1
  %20 = load ptr, ptr %19, align 8, !tbaa !32
  %21 = ptrtoint ptr %20 to i64
  %22 = load ptr, ptr %5, align 8, !tbaa !8
  %23 = load ptr, ptr %4, align 8, !tbaa !3
  %24 = getelementptr inbounds nuw %struct.DdManager, ptr %23, i32 0, i32 2
  %25 = load ptr, ptr %24, align 8, !tbaa !39
  %26 = icmp eq ptr %22, %25
  %27 = zext i1 %26 to i32
  %28 = sext i32 %27 to i64
  %29 = xor i64 %21, %28
  %30 = inttoptr i64 %29 to ptr
  store ptr %30, ptr %3, align 8
  store i32 1, ptr %12, align 4
  br label %162

31:                                               ; preds = %2
  %32 = load ptr, ptr %4, align 8, !tbaa !3
  %33 = load ptr, ptr %5, align 8, !tbaa !8
  %34 = call ptr @cuddCacheLookup1(ptr noundef %32, ptr noundef @Cudd_addBddPattern, ptr noundef %33)
  store ptr %34, ptr %6, align 8, !tbaa !8
  %35 = load ptr, ptr %6, align 8, !tbaa !8
  %36 = icmp ne ptr %35, null
  br i1 %36, label %37, label %39

37:                                               ; preds = %31
  %38 = load ptr, ptr %6, align 8, !tbaa !8
  store ptr %38, ptr %3, align 8
  store i32 1, ptr %12, align 4
  br label %162

39:                                               ; preds = %31
  %40 = load ptr, ptr %5, align 8, !tbaa !8
  %41 = getelementptr inbounds nuw %struct.DdNode, ptr %40, i32 0, i32 0
  %42 = load i32, ptr %41, align 8, !tbaa !31
  store i32 %42, ptr %11, align 4, !tbaa !34
  %43 = load ptr, ptr %5, align 8, !tbaa !8
  %44 = getelementptr inbounds nuw %struct.DdNode, ptr %43, i32 0, i32 3
  %45 = getelementptr inbounds nuw %struct.DdChildren, ptr %44, i32 0, i32 0
  %46 = load ptr, ptr %45, align 8, !tbaa !33
  store ptr %46, ptr %9, align 8, !tbaa !8
  %47 = load ptr, ptr %5, align 8, !tbaa !8
  %48 = getelementptr inbounds nuw %struct.DdNode, ptr %47, i32 0, i32 3
  %49 = getelementptr inbounds nuw %struct.DdChildren, ptr %48, i32 0, i32 1
  %50 = load ptr, ptr %49, align 8, !tbaa !33
  store ptr %50, ptr %10, align 8, !tbaa !8
  %51 = load ptr, ptr %4, align 8, !tbaa !3
  %52 = load ptr, ptr %9, align 8, !tbaa !8
  %53 = call ptr @cuddAddBddDoPattern(ptr noundef %51, ptr noundef %52)
  store ptr %53, ptr %7, align 8, !tbaa !8
  %54 = load ptr, ptr %7, align 8, !tbaa !8
  %55 = icmp eq ptr %54, null
  br i1 %55, label %56, label %57

56:                                               ; preds = %39
  store ptr null, ptr %3, align 8
  store i32 1, ptr %12, align 4
  br label %162

57:                                               ; preds = %39
  %58 = load ptr, ptr %7, align 8, !tbaa !8
  %59 = ptrtoint ptr %58 to i64
  %60 = and i64 %59, -2
  %61 = inttoptr i64 %60 to ptr
  %62 = getelementptr inbounds nuw %struct.DdNode, ptr %61, i32 0, i32 1
  %63 = load i32, ptr %62, align 4, !tbaa !12
  %64 = add i32 %63, 1
  store i32 %64, ptr %62, align 4, !tbaa !12
  %65 = load ptr, ptr %4, align 8, !tbaa !3
  %66 = load ptr, ptr %10, align 8, !tbaa !8
  %67 = call ptr @cuddAddBddDoPattern(ptr noundef %65, ptr noundef %66)
  store ptr %67, ptr %8, align 8, !tbaa !8
  %68 = load ptr, ptr %8, align 8, !tbaa !8
  %69 = icmp eq ptr %68, null
  br i1 %69, label %70, label %73

70:                                               ; preds = %57
  %71 = load ptr, ptr %4, align 8, !tbaa !3
  %72 = load ptr, ptr %7, align 8, !tbaa !8
  call void @Cudd_RecursiveDeref(ptr noundef %71, ptr noundef %72)
  store ptr null, ptr %3, align 8
  store i32 1, ptr %12, align 4
  br label %162

73:                                               ; preds = %57
  %74 = load ptr, ptr %8, align 8, !tbaa !8
  %75 = ptrtoint ptr %74 to i64
  %76 = and i64 %75, -2
  %77 = inttoptr i64 %76 to ptr
  %78 = getelementptr inbounds nuw %struct.DdNode, ptr %77, i32 0, i32 1
  %79 = load i32, ptr %78, align 4, !tbaa !12
  %80 = add i32 %79, 1
  store i32 %80, ptr %78, align 4, !tbaa !12
  %81 = load ptr, ptr %7, align 8, !tbaa !8
  %82 = ptrtoint ptr %81 to i64
  %83 = and i64 %82, 1
  %84 = trunc i64 %83 to i32
  %85 = icmp ne i32 %84, 0
  br i1 %85, label %86, label %121

86:                                               ; preds = %73
  %87 = load ptr, ptr %7, align 8, !tbaa !8
  %88 = load ptr, ptr %8, align 8, !tbaa !8
  %89 = icmp eq ptr %87, %88
  br i1 %89, label %90, label %95

90:                                               ; preds = %86
  %91 = load ptr, ptr %7, align 8, !tbaa !8
  %92 = ptrtoint ptr %91 to i64
  %93 = xor i64 %92, 1
  %94 = inttoptr i64 %93 to ptr
  br label %107

95:                                               ; preds = %86
  %96 = load ptr, ptr %4, align 8, !tbaa !3
  %97 = load i32, ptr %11, align 4, !tbaa !34
  %98 = load ptr, ptr %7, align 8, !tbaa !8
  %99 = ptrtoint ptr %98 to i64
  %100 = xor i64 %99, 1
  %101 = inttoptr i64 %100 to ptr
  %102 = load ptr, ptr %8, align 8, !tbaa !8
  %103 = ptrtoint ptr %102 to i64
  %104 = xor i64 %103, 1
  %105 = inttoptr i64 %104 to ptr
  %106 = call ptr @cuddUniqueInter(ptr noundef %96, i32 noundef %97, ptr noundef %101, ptr noundef %105)
  br label %107

107:                                              ; preds = %95, %90
  %108 = phi ptr [ %94, %90 ], [ %106, %95 ]
  store ptr %108, ptr %6, align 8, !tbaa !8
  %109 = load ptr, ptr %6, align 8, !tbaa !8
  %110 = icmp eq ptr %109, null
  br i1 %110, label %111, label %116

111:                                              ; preds = %107
  %112 = load ptr, ptr %4, align 8, !tbaa !3
  %113 = load ptr, ptr %7, align 8, !tbaa !8
  call void @Cudd_RecursiveDeref(ptr noundef %112, ptr noundef %113)
  %114 = load ptr, ptr %4, align 8, !tbaa !3
  %115 = load ptr, ptr %8, align 8, !tbaa !8
  call void @Cudd_RecursiveDeref(ptr noundef %114, ptr noundef %115)
  store ptr null, ptr %3, align 8
  store i32 1, ptr %12, align 4
  br label %162

116:                                              ; preds = %107
  %117 = load ptr, ptr %6, align 8, !tbaa !8
  %118 = ptrtoint ptr %117 to i64
  %119 = xor i64 %118, 1
  %120 = inttoptr i64 %119 to ptr
  store ptr %120, ptr %6, align 8, !tbaa !8
  br label %143

121:                                              ; preds = %73
  %122 = load ptr, ptr %7, align 8, !tbaa !8
  %123 = load ptr, ptr %8, align 8, !tbaa !8
  %124 = icmp eq ptr %122, %123
  br i1 %124, label %125, label %127

125:                                              ; preds = %121
  %126 = load ptr, ptr %7, align 8, !tbaa !8
  br label %133

127:                                              ; preds = %121
  %128 = load ptr, ptr %4, align 8, !tbaa !3
  %129 = load i32, ptr %11, align 4, !tbaa !34
  %130 = load ptr, ptr %7, align 8, !tbaa !8
  %131 = load ptr, ptr %8, align 8, !tbaa !8
  %132 = call ptr @cuddUniqueInter(ptr noundef %128, i32 noundef %129, ptr noundef %130, ptr noundef %131)
  br label %133

133:                                              ; preds = %127, %125
  %134 = phi ptr [ %126, %125 ], [ %132, %127 ]
  store ptr %134, ptr %6, align 8, !tbaa !8
  %135 = load ptr, ptr %6, align 8, !tbaa !8
  %136 = icmp eq ptr %135, null
  br i1 %136, label %137, label %142

137:                                              ; preds = %133
  %138 = load ptr, ptr %4, align 8, !tbaa !3
  %139 = load ptr, ptr %7, align 8, !tbaa !8
  call void @Cudd_RecursiveDeref(ptr noundef %138, ptr noundef %139)
  %140 = load ptr, ptr %4, align 8, !tbaa !3
  %141 = load ptr, ptr %8, align 8, !tbaa !8
  call void @Cudd_RecursiveDeref(ptr noundef %140, ptr noundef %141)
  store ptr null, ptr %3, align 8
  store i32 1, ptr %12, align 4
  br label %162

142:                                              ; preds = %133
  br label %143

143:                                              ; preds = %142, %116
  %144 = load ptr, ptr %7, align 8, !tbaa !8
  %145 = ptrtoint ptr %144 to i64
  %146 = and i64 %145, -2
  %147 = inttoptr i64 %146 to ptr
  %148 = getelementptr inbounds nuw %struct.DdNode, ptr %147, i32 0, i32 1
  %149 = load i32, ptr %148, align 4, !tbaa !12
  %150 = add i32 %149, -1
  store i32 %150, ptr %148, align 4, !tbaa !12
  %151 = load ptr, ptr %8, align 8, !tbaa !8
  %152 = ptrtoint ptr %151 to i64
  %153 = and i64 %152, -2
  %154 = inttoptr i64 %153 to ptr
  %155 = getelementptr inbounds nuw %struct.DdNode, ptr %154, i32 0, i32 1
  %156 = load i32, ptr %155, align 4, !tbaa !12
  %157 = add i32 %156, -1
  store i32 %157, ptr %155, align 4, !tbaa !12
  %158 = load ptr, ptr %4, align 8, !tbaa !3
  %159 = load ptr, ptr %5, align 8, !tbaa !8
  %160 = load ptr, ptr %6, align 8, !tbaa !8
  call void @cuddCacheInsert1(ptr noundef %158, ptr noundef @Cudd_addBddPattern, ptr noundef %159, ptr noundef %160)
  %161 = load ptr, ptr %6, align 8, !tbaa !8
  store ptr %161, ptr %3, align 8
  store i32 1, ptr %12, align 4
  br label %162

162:                                              ; preds = %143, %137, %111, %70, %56, %37, %17
  call void @llvm.lifetime.end.p0(i64 4, ptr %11) #5
  call void @llvm.lifetime.end.p0(i64 8, ptr %10) #5
  call void @llvm.lifetime.end.p0(i64 8, ptr %9) #5
  call void @llvm.lifetime.end.p0(i64 8, ptr %8) #5
  call void @llvm.lifetime.end.p0(i64 8, ptr %7) #5
  call void @llvm.lifetime.end.p0(i64 8, ptr %6) #5
  %163 = load ptr, ptr %3, align 8
  ret ptr %163
}