; Function Attrs: nounwind uwtable
define ptr @cuddAddBddDoPattern(ptr noundef %0, ptr noundef %1) local_unnamed_addr #0 {
  %3 = load i32, ptr %1, align 8, !tbaa !27
  %4 = icmp eq i32 %3, 2147483647
  br i1 %4, label %5, label %15

5:                                                ; preds = %2
  %6 = getelementptr inbounds nuw i8, ptr %0, i64 40
  %7 = load ptr, ptr %6, align 8, !tbaa !28
  %8 = ptrtoint ptr %7 to i64
  %9 = getelementptr inbounds nuw i8, ptr %0, i64 48
  %10 = load ptr, ptr %9, align 8, !tbaa !34
  %11 = icmp eq ptr %1, %10
  %12 = zext i1 %11 to i64
  %13 = xor i64 %12, %8
  %14 = inttoptr i64 %13 to ptr
  br label %64

15:                                               ; preds = %2
  %16 = tail call ptr @cuddCacheLookup1(ptr noundef %0, ptr noundef nonnull @Cudd_addBddPattern, ptr noundef nonnull %1) #4
  %.not = icmp eq ptr %16, null
  br i1 %.not, label %17, label %64

17:                                               ; preds = %15
  %18 = load i32, ptr %1, align 8, !tbaa !27
  %19 = getelementptr inbounds nuw i8, ptr %1, i64 16
  %20 = load ptr, ptr %19, align 8, !tbaa !29
  %21 = getelementptr inbounds nuw i8, ptr %1, i64 24
  %22 = load ptr, ptr %21, align 8, !tbaa !29
  %23 = tail call ptr @cuddAddBddDoPattern(ptr noundef %0, ptr noundef %20)
  %24 = icmp eq ptr %23, null
  br i1 %24, label %64, label %25

25:                                               ; preds = %17
  %26 = ptrtoint ptr %23 to i64
  %27 = and i64 %26, -2
  %28 = inttoptr i64 %27 to ptr
  %29 = getelementptr inbounds nuw i8, ptr %28, i64 4
  %30 = load i32, ptr %29, align 4, !tbaa !3
  %31 = add i32 %30, 1
  store i32 %31, ptr %29, align 4, !tbaa !3
  %32 = tail call ptr @cuddAddBddDoPattern(ptr noundef %0, ptr noundef %22)
  %33 = icmp eq ptr %32, null
  br i1 %33, label %34, label %35

34:                                               ; preds = %25
  tail call void @Cudd_RecursiveDeref(ptr noundef %0, ptr noundef nonnull %23) #4
  br label %64

35:                                               ; preds = %25
  %36 = ptrtoint ptr %32 to i64
  %37 = and i64 %36, -2
  %38 = inttoptr i64 %37 to ptr
  %39 = getelementptr inbounds nuw i8, ptr %38, i64 4
  %40 = load i32, ptr %39, align 4, !tbaa !3
  %41 = add i32 %40, 1
  store i32 %41, ptr %39, align 4, !tbaa !3
  %42 = and i64 %26, 1
  %.not59 = icmp eq i64 %42, 0
  %43 = icmp eq ptr %23, %32
  br i1 %.not59, label %55, label %44

44:                                               ; preds = %35
  br i1 %43, label %.thread, label %45

45:                                               ; preds = %44
  %46 = xor i64 %36, 1
  %47 = inttoptr i64 %46 to ptr
  %48 = tail call ptr @cuddUniqueInter(ptr noundef %0, i32 noundef %18, ptr noundef nonnull %28, ptr noundef %47) #4
  %49 = icmp eq ptr %48, null
  br i1 %49, label %50, label %.thread

50:                                               ; preds = %45
  tail call void @Cudd_RecursiveDeref(ptr noundef %0, ptr noundef nonnull %23) #4
  tail call void @Cudd_RecursiveDeref(ptr noundef %0, ptr noundef nonnull %32) #4
  br label %64

.thread:                                          ; preds = %44, %45
  %51 = phi ptr [ %48, %45 ], [ %28, %44 ]
  %52 = ptrtoint ptr %51 to i64
  %53 = xor i64 %52, 1
  %54 = inttoptr i64 %53 to ptr
  br label %.thread60

55:                                               ; preds = %35
  br i1 %43, label %.thread60, label %56

56:                                               ; preds = %55
  %57 = tail call ptr @cuddUniqueInter(ptr noundef %0, i32 noundef %18, ptr noundef nonnull %23, ptr noundef nonnull %32) #4
  %58 = icmp eq ptr %57, null
  br i1 %58, label %59, label %.thread60

59:                                               ; preds = %56
  tail call void @Cudd_RecursiveDeref(ptr noundef %0, ptr noundef nonnull %23) #4
  tail call void @Cudd_RecursiveDeref(ptr noundef %0, ptr noundef nonnull %32) #4
  br label %64

.thread60:                                        ; preds = %55, %56, %.thread
  %.053 = phi ptr [ %54, %.thread ], [ %57, %56 ], [ %23, %55 ]
  %60 = load i32, ptr %29, align 4, !tbaa !3
  %61 = add i32 %60, -1
  store i32 %61, ptr %29, align 4, !tbaa !3
  %62 = load i32, ptr %39, align 4, !tbaa !3
  %63 = add i32 %62, -1
  store i32 %63, ptr %39, align 4, !tbaa !3
  tail call void @cuddCacheInsert1(ptr noundef %0, ptr noundef nonnull @Cudd_addBddPattern, ptr noundef nonnull %1, ptr noundef %.053) #4
  br label %64

64:                                               ; preds = %17, %15, %.thread60, %59, %50, %34, %5
  %.0 = phi ptr [ %14, %5 ], [ null, %34 ], [ null, %50 ], [ %.053, %.thread60 ], [ null, %59 ], [ %16, %15 ], [ null, %17 ]
  ret ptr %.0
}